#include <math.h>
#include <stdio.h>
#include <stdlib.h>
#include <string.h>
#define LEN 100
#define ASCII 100
#define MAX_N 100
#define MAX_N 100
#define L 100
#define MAX 100
#define ASC 100
#define null 0
#define Len 100
#define M 100
#define SUM 100
#define NUMBER 100
#define SIZE 100
#define N 100
#define Max 100
#define X 100
#define Y 100
#define A 100
#define MAXN 100
#define MAXSIZE 100

void main()
{
	int n,k,i;
	int apple[N];
	scanf("%d%d",&n,&k);
	apple[n]=k+n;
	for(i=n;i>=1;)
	{
		apple[n]+=n;
		for(i=n-1;i>=1;i--)
		{
			if(apple[i+1]%(n-1)!=0)
				break;
			else
				apple[i]=apple[i+1]*n/(n-1)+k;//di tui
		}
	}
	printf("%d\n",apple[1]);
	


}