; ModuleID = '54/47.c'
source_filename = "54/47.c"
target datalayout = "e-m:e-p270:32:32-p271:32:32-p272:64:64-i64:64-f80:128-n8:16:32:64-S128"
target triple = "x86_64-pc-linux-gnu"

@.str = private unnamed_addr constant [5 x i8] c"%d%d\00", align 1
@.str.1 = private unnamed_addr constant [4 x i8] c"%d\0A\00", align 1

; Function Attrs: noinline nounwind uwtable
define dso_local void @main() #0 {
  %1 = alloca i32, align 4
  %2 = alloca i32, align 4
  %3 = alloca i32, align 4
  %4 = alloca [100 x i32], align 16
  %5 = call i32 (i8*, ...) @__isoc99_scanf(i8* getelementptr inbounds ([5 x i8], [5 x i8]* @.str, i64 0, i64 0), i32* %1, i32* %2)
  %6 = load i32, i32* %2, align 4
  %7 = load i32, i32* %1, align 4
  %8 = add nsw i32 %6, %7
  %9 = load i32, i32* %1, align 4
  %10 = sext i32 %9 to i64
  %11 = getelementptr inbounds [100 x i32], [100 x i32]* %4, i64 0, i64 %10
  store i32 %8, i32* %11, align 4
  %12 = load i32, i32* %1, align 4
  store i32 %12, i32* %3, align 4
  br label %13

13:                                               ; preds = %59, %0
  %14 = load i32, i32* %3, align 4
  %15 = icmp sge i32 %14, 1
  br i1 %15, label %16, label %60

16:                                               ; preds = %13
  %17 = load i32, i32* %1, align 4
  %18 = load i32, i32* %1, align 4
  %19 = sext i32 %18 to i64
  %20 = getelementptr inbounds [100 x i32], [100 x i32]* %4, i64 0, i64 %19
  %21 = load i32, i32* %20, align 4
  %22 = add nsw i32 %21, %17
  store i32 %22, i32* %20, align 4
  %23 = load i32, i32* %1, align 4
  %24 = sub nsw i32 %23, 1
  store i32 %24, i32* %3, align 4
  br label %25

25:                                               ; preds = %56, %16
  %26 = load i32, i32* %3, align 4
  %27 = icmp sge i32 %26, 1
  br i1 %27, label %28, label %59

28:                                               ; preds = %25
  %29 = load i32, i32* %3, align 4
  %30 = add nsw i32 %29, 1
  %31 = sext i32 %30 to i64
  %32 = getelementptr inbounds [100 x i32], [100 x i32]* %4, i64 0, i64 %31
  %33 = load i32, i32* %32, align 4
  %34 = load i32, i32* %1, align 4
  %35 = sub nsw i32 %34, 1
  %36 = srem i32 %33, %35
  %37 = icmp ne i32 %36, 0
  br i1 %37, label %38, label %39

38:                                               ; preds = %28
  br label %59

39:                                               ; preds = %28
  %40 = load i32, i32* %3, align 4
  %41 = add nsw i32 %40, 1
  %42 = sext i32 %41 to i64
  %43 = getelementptr inbounds [100 x i32], [100 x i32]* %4, i64 0, i64 %42
  %44 = load i32, i32* %43, align 4
  %45 = load i32, i32* %1, align 4
  %46 = mul nsw i32 %44, %45
  %47 = load i32, i32* %1, align 4
  %48 = sub nsw i32 %47, 1
  %49 = sdiv i32 %46, %48
  %50 = load i32, i32* %2, align 4
  %51 = add nsw i32 %49, %50
  %52 = load i32, i32* %3, align 4
  %53 = sext i32 %52 to i64
  %54 = getelementptr inbounds [100 x i32], [100 x i32]* %4, i64 0, i64 %53
  store i32 %51, i32* %54, align 4
  br label %55

55:                                               ; preds = %39
  br label %56

56:                                               ; preds = %55
  %57 = load i32, i32* %3, align 4
  %58 = add nsw i32 %57, -1
  store i32 %58, i32* %3, align 4
  br label %25

59:                                               ; preds = %38, %25
  br label %13

60:                                               ; preds = %13
  %61 = getelementptr inbounds [100 x i32], [100 x i32]* %4, i64 0, i64 1
  %62 = load i32, i32* %61, align 4
  %63 = call i32 (i8*, ...) @printf(i8* getelementptr inbounds ([4 x i8], [4 x i8]* @.str.1, i64 0, i64 0), i32 %62)
  ret void
}

declare dso_local i32 @__isoc99_scanf(i8*, ...) #1

declare dso_local i32 @printf(i8*, ...) #1


!llvm.module.flags = !{!0}
!llvm.ident = !{!1}

!0 = !{i32 1, !"wchar_size", i32 4}
!1 = !{!"clang version 10.0.0-4ubuntu1 "}
